; Function Attrs: nounwind uwtable
define zeroext i8 @l_List_isPerm___at_Lean_Elab_Term_elabCDotFunctionAlias_x3f___spec__32(ptr noundef %0, ptr noundef %1) local_unnamed_addr #0 {
  br label %3

3:                                                ; preds = %lean_dec.exit, %2
  %.026 = phi ptr [ %1, %2 ], [ %90, %lean_dec.exit ]
  %.024 = phi ptr [ %0, %2 ], [ %36, %lean_dec.exit ]
  %4 = ptrtoint ptr %.024 to i64
  %5 = and i64 %4, 1
  %.not.i43 = icmp eq i64 %5, 0
  br i1 %.not.i43, label %9, label %6

6:                                                ; preds = %3
  %7 = lshr i64 %4, 1
  %8 = trunc i64 %7 to i32
  br label %lean_obj_tag.exit

9:                                                ; preds = %3
  %10 = getelementptr i8, ptr %.024, i64 4
  %.val.i = load i32, ptr %10, align 4
  %11 = lshr i32 %.val.i, 24
  br label %lean_obj_tag.exit

lean_obj_tag.exit:                                ; preds = %6, %9
  %.0.i = phi i32 [ %8, %6 ], [ %11, %9 ]
  %12 = icmp eq i32 %.0.i, 0
  br i1 %12, label %13, label %24

13:                                               ; preds = %lean_obj_tag.exit
  %14 = tail call zeroext i8 @l_List_isEmpty___rarg(ptr noundef %.026) #6
  %15 = ptrtoint ptr %.026 to i64
  %16 = and i64 %15, 1
  %.not63 = icmp eq i64 %16, 0
  br i1 %.not63, label %17, label %lean_dec.exit34

17:                                               ; preds = %13
  %18 = load i32, ptr %.026, align 4, !tbaa !4
  %19 = icmp sgt i32 %18, 1
  br i1 %19, label %20, label %22, !prof !9

20:                                               ; preds = %17
  %21 = add nsw i32 %18, -1
  store i32 %21, ptr %.026, align 4, !tbaa !4
  br label %lean_dec.exit34

22:                                               ; preds = %17
  %.not.i = icmp eq i32 %18, 0
  br i1 %.not.i, label %lean_dec.exit34, label %23

23:                                               ; preds = %22
  tail call void @lean_dec_ref_cold(ptr noundef nonnull %.026) #6
  br label %lean_dec.exit34

24:                                               ; preds = %lean_obj_tag.exit
  %25 = getelementptr inbounds nuw i8, ptr %.024, i64 8
  %26 = load ptr, ptr %25, align 8, !tbaa !10
  %27 = ptrtoint ptr %26 to i64
  %28 = and i64 %27, 1
  %.not = icmp eq i64 %28, 0
  br i1 %.not, label %29, label %lean_inc.exit30

29:                                               ; preds = %24
  %.val.i44 = load i32, ptr %26, align 4, !tbaa !4
  %30 = icmp sgt i32 %.val.i44, 0
  br i1 %30, label %31, label %33, !prof !9

31:                                               ; preds = %29
  %32 = add nuw i32 %.val.i44, 1
  store i32 %32, ptr %26, align 4, !tbaa !4
  br label %lean_inc.exit30

33:                                               ; preds = %29
  %.not.i45 = icmp eq i32 %.val.i44, 0
  br i1 %.not.i45, label %lean_inc.exit30, label %34

34:                                               ; preds = %33
  tail call void @lean_inc_ref_cold(ptr noundef nonnull %26) #6
  br label %lean_inc.exit30

lean_inc.exit30:                                  ; preds = %34, %33, %31, %24
  %35 = getelementptr inbounds nuw i8, ptr %.024, i64 16
  %36 = load ptr, ptr %35, align 8, !tbaa !10
  %37 = ptrtoint ptr %36 to i64
  %38 = and i64 %37, 1
  %.not60 = icmp eq i64 %38, 0
  br i1 %.not60, label %39, label %lean_inc.exit29

39:                                               ; preds = %lean_inc.exit30
  %.val.i46 = load i32, ptr %36, align 4, !tbaa !4
  %40 = icmp sgt i32 %.val.i46, 0
  br i1 %40, label %41, label %43, !prof !9

41:                                               ; preds = %39
  %42 = add nuw i32 %.val.i46, 1
  store i32 %42, ptr %36, align 4, !tbaa !4
  br label %lean_inc.exit29

43:                                               ; preds = %39
  %.not.i47 = icmp eq i32 %.val.i46, 0
  br i1 %.not.i47, label %lean_inc.exit29, label %44

44:                                               ; preds = %43
  tail call void @lean_inc_ref_cold(ptr noundef nonnull %36) #6
  br label %lean_inc.exit29

lean_inc.exit29:                                  ; preds = %44, %43, %41, %lean_inc.exit30
  br i1 %.not.i43, label %45, label %lean_dec.exit33

45:                                               ; preds = %lean_inc.exit29
  %46 = load i32, ptr %.024, align 4, !tbaa !4
  %47 = icmp sgt i32 %46, 1
  br i1 %47, label %48, label %50, !prof !9

48:                                               ; preds = %45
  %49 = add nsw i32 %46, -1
  store i32 %49, ptr %.024, align 4, !tbaa !4
  br label %lean_dec.exit33

50:                                               ; preds = %45
  %.not.i35 = icmp eq i32 %46, 0
  br i1 %.not.i35, label %lean_dec.exit33, label %51

51:                                               ; preds = %50
  tail call void @lean_dec_ref_cold(ptr noundef nonnull %.024) #6
  br label %lean_dec.exit33

lean_dec.exit33:                                  ; preds = %51, %50, %48, %lean_inc.exit29
  %52 = ptrtoint ptr %.026 to i64
  %53 = and i64 %52, 1
  %.not62 = icmp eq i64 %53, 0
  br i1 %.not62, label %54, label %lean_inc.exit28

54:                                               ; preds = %lean_dec.exit33
  %.val.i49 = load i32, ptr %.026, align 4, !tbaa !4
  %55 = icmp sgt i32 %.val.i49, 0
  br i1 %55, label %56, label %58, !prof !9

56:                                               ; preds = %54
  %57 = add nuw i32 %.val.i49, 1
  store i32 %57, ptr %.026, align 4, !tbaa !4
  br label %lean_inc.exit28

58:                                               ; preds = %54
  %.not.i50 = icmp eq i32 %.val.i49, 0
  br i1 %.not.i50, label %lean_inc.exit28, label %59

59:                                               ; preds = %58
  tail call void @lean_inc_ref_cold(ptr noundef nonnull %.026) #6
  br label %lean_inc.exit28

lean_inc.exit28:                                  ; preds = %59, %58, %56, %lean_dec.exit33
  br i1 %.not, label %60, label %lean_inc.exit

60:                                               ; preds = %lean_inc.exit28
  %.val.i52 = load i32, ptr %26, align 4, !tbaa !4
  %61 = icmp sgt i32 %.val.i52, 0
  br i1 %61, label %62, label %64, !prof !9

62:                                               ; preds = %60
  %63 = add nuw i32 %.val.i52, 1
  store i32 %63, ptr %26, align 4, !tbaa !4
  br label %lean_inc.exit

64:                                               ; preds = %60
  %.not.i53 = icmp eq i32 %.val.i52, 0
  br i1 %.not.i53, label %lean_inc.exit, label %65

65:                                               ; preds = %64
  tail call void @lean_inc_ref_cold(ptr noundef nonnull %26) #6
  br label %lean_inc.exit

lean_inc.exit:                                    ; preds = %65, %64, %62, %lean_inc.exit28
  %66 = tail call zeroext i8 @l_List_elem___at_Lean_Elab_Term_elabCDotFunctionAlias_x3f___spec__33(ptr noundef %26, ptr noundef %.026)
  %67 = icmp eq i8 %66, 0
  br i1 %67, label %68, label %lean_dec.exit

68:                                               ; preds = %lean_inc.exit
  br i1 %.not60, label %69, label %lean_dec.exit32

69:                                               ; preds = %68
  %70 = load i32, ptr %36, align 4, !tbaa !4
  %71 = icmp sgt i32 %70, 1
  br i1 %71, label %72, label %74, !prof !9

72:                                               ; preds = %69
  %73 = add nsw i32 %70, -1
  store i32 %73, ptr %36, align 4, !tbaa !4
  br label %lean_dec.exit32

74:                                               ; preds = %69
  %.not.i37 = icmp eq i32 %70, 0
  br i1 %.not.i37, label %lean_dec.exit32, label %75

75:                                               ; preds = %74
  tail call void @lean_dec_ref_cold(ptr noundef nonnull %36) #6
  br label %lean_dec.exit32

lean_dec.exit32:                                  ; preds = %75, %74, %72, %68
  br i1 %.not, label %76, label %lean_dec.exit31

76:                                               ; preds = %lean_dec.exit32
  %77 = load i32, ptr %26, align 4, !tbaa !4
  %78 = icmp sgt i32 %77, 1
  br i1 %78, label %79, label %81, !prof !9

79:                                               ; preds = %76
  %80 = add nsw i32 %77, -1
  store i32 %80, ptr %26, align 4, !tbaa !4
  br label %lean_dec.exit31

81:                                               ; preds = %76
  %.not.i39 = icmp eq i32 %77, 0
  br i1 %.not.i39, label %lean_dec.exit31, label %82

82:                                               ; preds = %81
  tail call void @lean_dec_ref_cold(ptr noundef nonnull %26) #6
  br label %lean_dec.exit31

lean_dec.exit31:                                  ; preds = %82, %81, %79, %lean_dec.exit32
  br i1 %.not62, label %83, label %lean_dec.exit34

83:                                               ; preds = %lean_dec.exit31
  %84 = load i32, ptr %.026, align 4, !tbaa !4
  %85 = icmp sgt i32 %84, 1
  br i1 %85, label %86, label %88, !prof !9

86:                                               ; preds = %83
  %87 = add nsw i32 %84, -1
  store i32 %87, ptr %.026, align 4, !tbaa !4
  br label %lean_dec.exit34

88:                                               ; preds = %83
  %.not.i41 = icmp eq i32 %84, 0
  br i1 %.not.i41, label %lean_dec.exit34, label %89

89:                                               ; preds = %88
  tail call void @lean_dec_ref_cold(ptr noundef nonnull %.026) #6
  br label %lean_dec.exit34

lean_dec.exit:                                    ; preds = %lean_inc.exit
  %90 = tail call ptr @l_List_erase___at_Lean_Elab_Term_elabCDotFunctionAlias_x3f___spec__34(ptr noundef %.026, ptr noundef %26)
  br label %3

lean_dec.exit34:                                  ; preds = %lean_dec.exit31, %86, %88, %89, %13, %20, %22, %23
  %.1 = phi i8 [ %14, %23 ], [ %14, %22 ], [ %14, %20 ], [ %14, %13 ], [ 0, %89 ], [ 0, %88 ], [ 0, %86 ], [ 0, %lean_dec.exit31 ]
  ret i8 %.1
}